; Function Attrs: nounwind uwtable
define dso_local void @_bt_freestack(ptr noundef %0) local_unnamed_addr #0 {
  %.not4 = icmp eq ptr %0, null
  br i1 %.not4, label %._crit_edge, label %.lr.ph

.lr.ph:                                           ; preds = %1, %.lr.ph
  %.05 = phi ptr [ %3, %.lr.ph ], [ %0, %1 ]
  %2 = getelementptr inbounds nuw i8, ptr %.05, i64 8
  %3 = load ptr, ptr %2, align 8
  tail call void @pfree(ptr noundef nonnull %.05) #14
  %.not = icmp eq ptr %3, null
  br i1 %.not, label %._crit_edge, label %.lr.ph, !llvm.loop !8

._crit_edge:                                      ; preds = %.lr.ph, %1
  ret void
}